; Function Attrs: mustprogress nounwind uwtable
define hidden void @_ZN10GCNotifier10addRequestEP21GCNotificationRequest(ptr noundef %0) local_unnamed_addr #0 align 2 {
  %2 = load ptr, ptr @Notification_lock, align 8
  %.not.i.i = icmp eq ptr %2, null
  br i1 %.not.i.i, label %_ZN11MutexLockerD2Ev.exit.critedge, label %_ZN11MutexLockerC2EP5MutexNS0_18SafepointCheckFlagE.exit

_ZN11MutexLockerC2EP5MutexNS0_18SafepointCheckFlagE.exit: ; preds = %1
  tail call void @_ZN5Mutex28lock_without_safepoint_checkEv(ptr noundef nonnull align 8 dereferenceable(104) %2) #8
  %3 = load ptr, ptr @_ZN10GCNotifier13first_requestE, align 8
  %4 = icmp eq ptr %3, null
  %5 = load ptr, ptr @_ZN10GCNotifier12last_requestE, align 8
  %.sink = select i1 %4, ptr @_ZN10GCNotifier13first_requestE, ptr %5
  store ptr %0, ptr %.sink, align 8
  store ptr %0, ptr @_ZN10GCNotifier12last_requestE, align 8
  %6 = load ptr, ptr @Notification_lock, align 8
  tail call void @_ZN7Monitor10notify_allEv(ptr noundef nonnull align 8 dereferenceable(104) %6) #8
  tail call void @_ZN5Mutex6unlockEv(ptr noundef nonnull align 8 dereferenceable(104) %2) #8
  br label %_ZN11MutexLockerD2Ev.exit

_ZN11MutexLockerD2Ev.exit.critedge:               ; preds = %1
  %7 = load ptr, ptr @_ZN10GCNotifier13first_requestE, align 8
  %8 = icmp eq ptr %7, null
  %9 = load ptr, ptr @_ZN10GCNotifier12last_requestE, align 8
  %.sink.c = select i1 %8, ptr @_ZN10GCNotifier13first_requestE, ptr %9
  store ptr %0, ptr %.sink.c, align 8
  store ptr %0, ptr @_ZN10GCNotifier12last_requestE, align 8
  %10 = load ptr, ptr @Notification_lock, align 8
  tail call void @_ZN7Monitor10notify_allEv(ptr noundef nonnull align 8 dereferenceable(104) %10) #8
  br label %_ZN11MutexLockerD2Ev.exit

_ZN11MutexLockerD2Ev.exit:                        ; preds = %_ZN11MutexLockerD2Ev.exit.critedge, %_ZN11MutexLockerC2EP5MutexNS0_18SafepointCheckFlagE.exit
  ret void
}